target datalayout = "e-m:e-p270:32:32-p271:32:32-p272:64:64-i64:64-i128:128-f80:128-n8:16:32:64-S128"
target triple = "x86_64-unknown-linux-gnu"

%"class.boost::detail::shared_count" = type { ptr }
%"class.boost::shared_ptr.50" = type { ptr, %"class.boost::detail::shared_count" }
%"class.QuantLib::Array" = type { %"class.std::unique_ptr", i64 }
%"class.std::unique_ptr" = type { %"struct.std::__uniq_ptr_data" }
%"struct.std::__uniq_ptr_data" = type { %"class.std::__uniq_ptr_impl" }
%"class.std::__uniq_ptr_impl" = type { %"class.std::tuple" }
%"class.std::tuple" = type { %"struct.std::_Tuple_impl" }
%"struct.std::_Tuple_impl" = type { %"struct.std::_Head_base.34" }
%"struct.std::_Head_base.34" = type { ptr }
%"class.QuantLib::Constraint" = type { %"class.boost::shared_ptr.48" }
%"class.boost::shared_ptr.48" = type { ptr, %"class.boost::detail::shared_count" }
%"class.QuantLib::FittedBondDiscountCurve::FittingMethod" = type { ptr, i8, ptr, %"class.QuantLib::Array", %"class.QuantLib::Array", %"class.boost::shared_ptr.49", %"class.QuantLib::Array", %"class.QuantLib::Array", i8, i32, double, i32, %"class.boost::shared_ptr.50", %"class.QuantLib::Constraint", double, double }
%"class.boost::shared_ptr.49" = type { ptr, %"class.boost::detail::shared_count" }
%"class.QuantLib::SimplePolynomialFitting" = type { %"class.QuantLib::FittedBondDiscountCurve::FittingMethod", i64 }

; Function Attrs: mustprogress nounwind uwtable
define linkonce_odr noundef nonnull align 8 dereferenceable(8) ptr @_ZNSt10_Head_baseILm0EPdLb0EE7_M_headERKS1_(ptr noundef nonnull align 8 dereferenceable(8) %__b) #5 comdat align 2 {
entry:
  %__b.addr = alloca ptr, align 8
  store ptr %__b, ptr %__b.addr, align 8, !tbaa !3
  %0 = load ptr, ptr %__b.addr, align 8, !tbaa !3
  %_M_head_impl = getelementptr inbounds nuw %"struct.std::_Head_base.34", ptr %0, i32 0, i32 0
  ret ptr %_M_head_impl
}

; Function Attrs: mustprogress nounwind uwtable
define linkonce_odr noundef nonnull align 8 dereferenceable(8) ptr @_ZNSt11_Tuple_implILm0EJPdSt14default_deleteIA_dEEE7_M_headERKS4_(ptr noundef nonnull align 8 dereferenceable(8) %__t) #5 comdat align 2 {
entry:
  %__t.addr = alloca ptr, align 8
  store ptr %__t, ptr %__t.addr, align 8, !tbaa !3
  %0 = load ptr, ptr %__t.addr, align 8, !tbaa !3
  %call = call noundef nonnull align 8 dereferenceable(8) ptr @_ZNSt10_Head_baseILm0EPdLb0EE7_M_headERKS1_(ptr noundef nonnull align 8 dereferenceable(8) %0) #17
  ret ptr %call
}

; Function Attrs: mustprogress nounwind uwtable
define linkonce_odr noundef nonnull align 8 dereferenceable(8) ptr @_ZSt12__get_helperILm0EPdJSt14default_deleteIA_dEEERKT0_RKSt11_Tuple_implIXT_EJS4_DpT1_EE(ptr noundef nonnull align 8 dereferenceable(8) %__t) #5 comdat {
entry:
  %__t.addr = alloca ptr, align 8
  store ptr %__t, ptr %__t.addr, align 8, !tbaa !3
  %0 = load ptr, ptr %__t.addr, align 8, !tbaa !3
  %call = call noundef nonnull align 8 dereferenceable(8) ptr @_ZNSt11_Tuple_implILm0EJPdSt14default_deleteIA_dEEE7_M_headERKS4_(ptr noundef nonnull align 8 dereferenceable(8) %0) #17
  ret ptr %call
}

; Function Attrs: mustprogress nounwind uwtable
define linkonce_odr noundef nonnull align 8 dereferenceable(8) ptr @_ZSt3getILm0EJPdSt14default_deleteIA_dEEERKNSt13tuple_elementIXT_ESt5tupleIJDpT0_EEE4typeERKS8_(ptr noundef nonnull align 8 dereferenceable(8) %__t) #5 comdat {
entry:
  %__t.addr = alloca ptr, align 8
  store ptr %__t, ptr %__t.addr, align 8, !tbaa !3
  %0 = load ptr, ptr %__t.addr, align 8, !tbaa !3
  %call = call noundef nonnull align 8 dereferenceable(8) ptr @_ZSt12__get_helperILm0EPdJSt14default_deleteIA_dEEERKT0_RKSt11_Tuple_implIXT_EJS4_DpT1_EE(ptr noundef nonnull align 8 dereferenceable(8) %0) #17
  ret ptr %call
}

; Function Attrs: mustprogress nounwind uwtable
define linkonce_odr noundef ptr @_ZNKSt15__uniq_ptr_implIdSt14default_deleteIA_dEE6_M_ptrEv(ptr noundef nonnull align 8 dereferenceable(8) %this) #5 comdat align 2 {
entry:
  %this.addr = alloca ptr, align 8
  store ptr %this, ptr %this.addr, align 8, !tbaa !3
  %this1 = load ptr, ptr %this.addr, align 8
  %_M_t = getelementptr inbounds nuw %"class.std::__uniq_ptr_impl", ptr %this1, i32 0, i32 0
  %call = call noundef nonnull align 8 dereferenceable(8) ptr @_ZSt3getILm0EJPdSt14default_deleteIA_dEEERKNSt13tuple_elementIXT_ESt5tupleIJDpT0_EEE4typeERKS8_(ptr noundef nonnull align 8 dereferenceable(8) %_M_t) #17
  %0 = load ptr, ptr %call, align 8, !tbaa !3
  ret ptr %0
}

; Function Attrs: mustprogress nounwind uwtable
define linkonce_odr noundef ptr @_ZNKSt10unique_ptrIA_dSt14default_deleteIS0_EE3getEv(ptr noundef nonnull align 8 dereferenceable(8) %this) #5 comdat align 2 {
entry:
  %this.addr = alloca ptr, align 8
  store ptr %this, ptr %this.addr, align 8, !tbaa !3
  %this1 = load ptr, ptr %this.addr, align 8
  %_M_t = getelementptr inbounds nuw %"class.std::unique_ptr", ptr %this1, i32 0, i32 0
  %call = call noundef ptr @_ZNKSt15__uniq_ptr_implIdSt14default_deleteIA_dEE6_M_ptrEv(ptr noundef nonnull align 8 dereferenceable(8) %_M_t) #17
  ret ptr %call
}

; Function Attrs: inlinehint mustprogress nounwind uwtable
define linkonce_odr noundef double @_ZNK8QuantLib5ArrayixEm(ptr noundef nonnull align 8 dereferenceable(16) %this, i64 noundef %i) #7 comdat align 2 {
entry:
  %this.addr = alloca ptr, align 8
  %i.addr = alloca i64, align 8
  store ptr %this, ptr %this.addr, align 8, !tbaa !3
  store i64 %i, ptr %i.addr, align 8, !tbaa !13
  %this1 = load ptr, ptr %this.addr, align 8
  %data_ = getelementptr inbounds nuw %"class.QuantLib::Array", ptr %this1, i32 0, i32 0
  %call = call noundef ptr @_ZNKSt10unique_ptrIA_dSt14default_deleteIS0_EE3getEv(ptr noundef nonnull align 8 dereferenceable(8) %data_) #17
  %0 = load i64, ptr %i.addr, align 8, !tbaa !13
  %arrayidx = getelementptr inbounds nuw double, ptr %call, i64 %0
  %1 = load double, ptr %arrayidx, align 8, !tbaa !11
  ret double %1
}

; Function Attrs: mustprogress uwtable
define noundef double @_ZNK8QuantLib23SimplePolynomialFitting16discountFunctionERKNS_5ArrayEd(ptr noundef nonnull align 8 dereferenceable(184) %this, ptr noundef nonnull align 8 dereferenceable(16) %x, double noundef %t) unnamed_addr #3 align 2 {
entry:
  %this.addr = alloca ptr, align 8
  %x.addr = alloca ptr, align 8
  %t.addr = alloca double, align 8
  %d = alloca double, align 8
  %i = alloca i64, align 8
  %i4 = alloca i64, align 8
  store ptr %this, ptr %this.addr, align 8, !tbaa !3
  store ptr %x, ptr %x.addr, align 8, !tbaa !3
  store double %t, ptr %t.addr, align 8, !tbaa !11
  %this1 = load ptr, ptr %this.addr, align 8
  call void @llvm.lifetime.start.p0(i64 8, ptr %d) #17
  store double 0.000000e+00, ptr %d, align 8, !tbaa !11
  %constrainAtZero_ = getelementptr inbounds nuw %"class.QuantLib::FittedBondDiscountCurve::FittingMethod", ptr %this1, i32 0, i32 1
  %0 = load i8, ptr %constrainAtZero_, align 8, !tbaa !37, !range !15, !noundef !16
  %loadedv = trunc i8 %0 to i1
  br i1 %loadedv, label %if.else, label %if.then

if.then:                                          ; preds = %entry
  call void @llvm.lifetime.start.p0(i64 8, ptr %i) #17
  store i64 0, ptr %i, align 8, !tbaa !13
  br label %for.cond

for.cond:                                         ; preds = %for.inc, %if.then
  %1 = load i64, ptr %i, align 8, !tbaa !13
  %size_ = getelementptr inbounds nuw %"class.QuantLib::SimplePolynomialFitting", ptr %this1, i32 0, i32 1
  %2 = load i64, ptr %size_, align 8, !tbaa !54
  %cmp = icmp ult i64 %1, %2
  br i1 %cmp, label %for.body, label %for.cond.cleanup

for.cond.cleanup:                                 ; preds = %for.cond
  call void @llvm.lifetime.end.p0(i64 8, ptr %i) #17
  br label %for.end

for.body:                                         ; preds = %for.cond
  %3 = load ptr, ptr %x.addr, align 8, !tbaa !3
  %4 = load i64, ptr %i, align 8, !tbaa !13
  %call = call noundef double @_ZNK8QuantLib5ArrayixEm(ptr noundef nonnull align 8 dereferenceable(16) %3, i64 noundef %4)
  %5 = load i64, ptr %i, align 8, !tbaa !13
  %conv = trunc i64 %5 to i32
  %6 = load i64, ptr %i, align 8, !tbaa !13
  %conv2 = trunc i64 %6 to i32
  %7 = load double, ptr %t.addr, align 8, !tbaa !11
  %call3 = call noundef double @_ZN8QuantLib19BernsteinPolynomial3getEjjd(i32 noundef %conv, i32 noundef %conv2, double noundef %7)
  %8 = load double, ptr %d, align 8, !tbaa !11
  %9 = call double @llvm.fmuladd.f64(double %call, double %call3, double %8)
  store double %9, ptr %d, align 8, !tbaa !11
  br label %for.inc

for.inc:                                          ; preds = %for.body
  %10 = load i64, ptr %i, align 8, !tbaa !13
  %inc = add i64 %10, 1
  store i64 %inc, ptr %i, align 8, !tbaa !13
  br label %for.cond, !llvm.loop !56

for.end:                                          ; preds = %for.cond.cleanup
  br label %if.end

if.else:                                          ; preds = %entry
  store double 1.000000e+00, ptr %d, align 8, !tbaa !11
  call void @llvm.lifetime.start.p0(i64 8, ptr %i4) #17
  store i64 0, ptr %i4, align 8, !tbaa !13
  br label %for.cond5

for.cond5:                                        ; preds = %for.inc15, %if.else
  %11 = load i64, ptr %i4, align 8, !tbaa !13
  %size_6 = getelementptr inbounds nuw %"class.QuantLib::SimplePolynomialFitting", ptr %this1, i32 0, i32 1
  %12 = load i64, ptr %size_6, align 8, !tbaa !54
  %cmp7 = icmp ult i64 %11, %12
  br i1 %cmp7, label %for.body9, label %for.cond.cleanup8

for.cond.cleanup8:                                ; preds = %for.cond5
  call void @llvm.lifetime.end.p0(i64 8, ptr %i4) #17
  br label %for.end17

for.body9:                                        ; preds = %for.cond5
  %13 = load ptr, ptr %x.addr, align 8, !tbaa !3
  %14 = load i64, ptr %i4, align 8, !tbaa !13
  %call10 = call noundef double @_ZNK8QuantLib5ArrayixEm(ptr noundef nonnull align 8 dereferenceable(16) %13, i64 noundef %14)
  %15 = load i64, ptr %i4, align 8, !tbaa !13
  %add = add i64 %15, 1
  %conv11 = trunc i64 %add to i32
  %16 = load i64, ptr %i4, align 8, !tbaa !13
  %add12 = add i64 %16, 1
  %conv13 = trunc i64 %add12 to i32
  %17 = load double, ptr %t.addr, align 8, !tbaa !11
  %call14 = call noundef double @_ZN8QuantLib19BernsteinPolynomial3getEjjd(i32 noundef %conv11, i32 noundef %conv13, double noundef %17)
  %18 = load double, ptr %d, align 8, !tbaa !11
  %19 = call double @llvm.fmuladd.f64(double %call10, double %call14, double %18)
  store double %19, ptr %d, align 8, !tbaa !11
  br label %for.inc15

for.inc15:                                        ; preds = %for.body9
  %20 = load i64, ptr %i4, align 8, !tbaa !13
  %inc16 = add i64 %20, 1
  store i64 %inc16, ptr %i4, align 8, !tbaa !13
  br label %for.cond5, !llvm.loop !57

for.end17:                                        ; preds = %for.cond.cleanup8
  br label %if.end

if.end:                                           ; preds = %for.end17, %for.end
  %21 = load double, ptr %d, align 8, !tbaa !11
  call void @llvm.lifetime.end.p0(i64 8, ptr %d) #17
  ret double %21
}