; Function Attrs: mustprogress uwtable
define noundef double @_ZNK8QuantLib23SimplePolynomialFitting16discountFunctionERKNS_5ArrayEd(ptr nocapture noundef nonnull readonly align 8 dereferenceable(184) %this, ptr nocapture noundef nonnull readonly align 8 dereferenceable(16) %x, double noundef %t) unnamed_addr #3 align 2 {
entry:
  %constrainAtZero_ = getelementptr inbounds nuw i8, ptr %this, i64 8
  %0 = load i8, ptr %constrainAtZero_, align 8, !tbaa !41, !range !42, !noundef !43
  %loadedv = trunc nuw i8 %0 to i1
  %size_6 = getelementptr inbounds nuw i8, ptr %this, i64 176
  %1 = load i64, ptr %size_6, align 8, !tbaa !77
  %cmp718.not = icmp eq i64 %1, 0
  br i1 %loadedv, label %for.cond5.preheader, label %for.cond.preheader

for.cond.preheader:                               ; preds = %entry
  br i1 %cmp718.not, label %if.end, label %for.body

for.cond5.preheader:                              ; preds = %entry
  br i1 %cmp718.not, label %if.end, label %for.body9

for.body:                                         ; preds = %for.cond.preheader, %for.body
  %i.017 = phi i64 [ %inc, %for.body ], [ 0, %for.cond.preheader ]
  %d.016 = phi double [ %4, %for.body ], [ 0.000000e+00, %for.cond.preheader ]
  %2 = load ptr, ptr %x, align 8, !tbaa !28
  %arrayidx.i = getelementptr inbounds nuw double, ptr %2, i64 %i.017
  %3 = load double, ptr %arrayidx.i, align 8, !tbaa !49
  %conv = trunc i64 %i.017 to i32
  %call3 = tail call noundef double @_ZN8QuantLib19BernsteinPolynomial3getEjjd(i32 noundef %conv, i32 noundef %conv, double noundef %t)
  %4 = tail call double @llvm.fmuladd.f64(double %3, double %call3, double %d.016)
  %inc = add nuw i64 %i.017, 1
  %5 = load i64, ptr %size_6, align 8, !tbaa !77
  %cmp = icmp ult i64 %inc, %5
  br i1 %cmp, label %for.body, label %if.end, !llvm.loop !82

for.body9:                                        ; preds = %for.cond5.preheader, %for.body9
  %i4.020 = phi i64 [ %add, %for.body9 ], [ 0, %for.cond5.preheader ]
  %d.219 = phi double [ %8, %for.body9 ], [ 1.000000e+00, %for.cond5.preheader ]
  %6 = load ptr, ptr %x, align 8, !tbaa !28
  %arrayidx.i13 = getelementptr inbounds nuw double, ptr %6, i64 %i4.020
  %7 = load double, ptr %arrayidx.i13, align 8, !tbaa !49
  %add = add nuw i64 %i4.020, 1
  %conv11 = trunc i64 %add to i32
  %call14 = tail call noundef double @_ZN8QuantLib19BernsteinPolynomial3getEjjd(i32 noundef %conv11, i32 noundef %conv11, double noundef %t)
  %8 = tail call double @llvm.fmuladd.f64(double %7, double %call14, double %d.219)
  %9 = load i64, ptr %size_6, align 8, !tbaa !77
  %cmp7 = icmp ult i64 %add, %9
  br i1 %cmp7, label %for.body9, label %if.end, !llvm.loop !83

if.end:                                           ; preds = %for.body, %for.body9, %for.cond.preheader, %for.cond5.preheader
  %d.1 = phi double [ 1.000000e+00, %for.cond5.preheader ], [ 0.000000e+00, %for.cond.preheader ], [ %8, %for.body9 ], [ %4, %for.body ]
  ret double %d.1
}